target datalayout = "e-m:e-p270:32:32-p271:32:32-p272:64:64-i64:64-i128:128-f80:128-n8:16:32:64-S128"
target triple = "x86_64-pc-linux-gnu"

@stderr = external global ptr, align 8
@.str.259 = private unnamed_addr constant [13 x i8] c"depth=%d %s\0A\00", align 1
@.str.260 = private unnamed_addr constant [22 x i8] c"depth=%d error=%d %s\0A\00", align 1
@.str.261 = private unnamed_addr constant [18 x i8] c"Error string: %s\0A\00", align 1

; Function Attrs: nounwind uwtable
define internal i32 @verify_callback(i32 noundef %0, ptr noundef %1) #0 {
  %3 = alloca i32, align 4
  %4 = alloca ptr, align 8
  %5 = alloca ptr, align 8
  %6 = alloca [256 x i8], align 16
  %7 = alloca i32, align 4
  store i32 %0, ptr %3, align 4, !tbaa !4
  store ptr %1, ptr %4, align 8, !tbaa !51
  call void @llvm.lifetime.start.p0(i64 8, ptr %5) #10
  call void @llvm.lifetime.start.p0(i64 256, ptr %6) #10
  %8 = load ptr, ptr %4, align 8, !tbaa !51
  %9 = call ptr @X509_STORE_CTX_get_current_cert(ptr noundef %8)
  %10 = call ptr @X509_get_subject_name(ptr noundef %9)
  %11 = getelementptr inbounds [256 x i8], ptr %6, i64 0, i64 0
  %12 = call ptr @X509_NAME_oneline(ptr noundef %10, ptr noundef %11, i32 noundef 256)
  store ptr %12, ptr %5, align 8, !tbaa !11
  %13 = load ptr, ptr %5, align 8, !tbaa !11
  %14 = icmp ne ptr %13, null
  br i1 %14, label %15, label %32

15:                                               ; preds = %2
  %16 = load i32, ptr %3, align 4, !tbaa !4
  %17 = icmp ne i32 %16, 0
  br i1 %17, label %18, label %23

18:                                               ; preds = %15
  %19 = load ptr, ptr %4, align 8, !tbaa !51
  %20 = call i32 @X509_STORE_CTX_get_error_depth(ptr noundef %19)
  %21 = getelementptr inbounds [256 x i8], ptr %6, i64 0, i64 0
  %22 = call i32 (ptr, ...) @printf(ptr noundef @.str.259, i32 noundef %20, ptr noundef %21)
  br label %31

23:                                               ; preds = %15
  %24 = load ptr, ptr @stderr, align 8, !tbaa !33
  %25 = load ptr, ptr %4, align 8, !tbaa !51
  %26 = call i32 @X509_STORE_CTX_get_error_depth(ptr noundef %25)
  %27 = load ptr, ptr %4, align 8, !tbaa !51
  %28 = call i32 @X509_STORE_CTX_get_error(ptr noundef %27)
  %29 = getelementptr inbounds [256 x i8], ptr %6, i64 0, i64 0
  %30 = call i32 (ptr, ptr, ...) @fprintf(ptr noundef %24, ptr noundef @.str.260, i32 noundef %26, i32 noundef %28, ptr noundef %29) #10
  br label %31

31:                                               ; preds = %23, %18
  br label %32

32:                                               ; preds = %31, %2
  %33 = load i32, ptr %3, align 4, !tbaa !4
  %34 = icmp eq i32 %33, 0
  br i1 %34, label %35, label %47

35:                                               ; preds = %32
  call void @llvm.lifetime.start.p0(i64 4, ptr %7) #10
  %36 = load ptr, ptr %4, align 8, !tbaa !51
  %37 = call i32 @X509_STORE_CTX_get_error(ptr noundef %36)
  store i32 %37, ptr %7, align 4, !tbaa !4
  %38 = load i32, ptr %7, align 4, !tbaa !4
  switch i32 %38, label %39 [
    i32 9, label %45
    i32 10, label %45
    i32 18, label %45
  ]

39:                                               ; preds = %35
  %40 = load ptr, ptr @stderr, align 8, !tbaa !33
  %41 = load i32, ptr %7, align 4, !tbaa !4
  %42 = sext i32 %41 to i64
  %43 = call ptr @X509_verify_cert_error_string(i64 noundef %42)
  %44 = call i32 (ptr, ptr, ...) @fprintf(ptr noundef %40, ptr noundef @.str.261, ptr noundef %43) #10
  br label %46

45:                                               ; preds = %35, %35, %35
  store i32 1, ptr %3, align 4, !tbaa !4
  br label %46

46:                                               ; preds = %45, %39
  call void @llvm.lifetime.end.p0(i64 4, ptr %7) #10
  br label %47

47:                                               ; preds = %46, %32
  %48 = load i32, ptr %3, align 4, !tbaa !4
  call void @llvm.lifetime.end.p0(i64 256, ptr %6) #10
  call void @llvm.lifetime.end.p0(i64 8, ptr %5) #10
  ret i32 %48
}