; Function Attrs: nounwind uwtable
define internal noundef i32 @verify_callback(i32 noundef %0, ptr noundef %1) #7 {
  %3 = alloca [256 x i8], align 16
  call void @llvm.lifetime.start.p0(i64 256, ptr nonnull %3) #23
  %4 = tail call ptr @X509_STORE_CTX_get_current_cert(ptr noundef %1) #23
  %5 = tail call ptr @X509_get_subject_name(ptr noundef %4) #23
  %6 = call ptr @X509_NAME_oneline(ptr noundef %5, ptr noundef nonnull %3, i32 noundef 256) #23
  %.not = icmp eq ptr %6, null
  %7 = icmp eq i32 %0, 0
  br i1 %.not, label %15, label %8

8:                                                ; preds = %2
  br i1 %7, label %.thread, label %.thread13

.thread13:                                        ; preds = %8
  %9 = call i32 @X509_STORE_CTX_get_error_depth(ptr noundef %1) #23
  %10 = call i32 (ptr, ...) @printf(ptr noundef nonnull dereferenceable(1) @.str.259, i32 noundef %9, ptr noundef nonnull %3)
  br label %23

.thread:                                          ; preds = %8
  %11 = load ptr, ptr @stderr, align 8, !tbaa !17
  %12 = call i32 @X509_STORE_CTX_get_error_depth(ptr noundef %1) #23
  %13 = call i32 @X509_STORE_CTX_get_error(ptr noundef %1) #23
  %14 = call i32 (ptr, ptr, ...) @fprintf(ptr noundef %11, ptr noundef nonnull @.str.260, i32 noundef %12, i32 noundef %13, ptr noundef nonnull %3) #26
  br label %16

15:                                               ; preds = %2
  br i1 %7, label %16, label %23

16:                                               ; preds = %.thread, %15
  %17 = call i32 @X509_STORE_CTX_get_error(ptr noundef %1) #23
  switch i32 %17, label %18 [
    i32 9, label %23
    i32 10, label %23
    i32 18, label %23
  ]

18:                                               ; preds = %16
  %19 = load ptr, ptr @stderr, align 8, !tbaa !17
  %20 = sext i32 %17 to i64
  %21 = call ptr @X509_verify_cert_error_string(i64 noundef %20) #23
  %22 = call i32 (ptr, ptr, ...) @fprintf(ptr noundef %19, ptr noundef nonnull @.str.261, ptr noundef %21) #26
  br label %23

23:                                               ; preds = %.thread13, %18, %16, %16, %16, %15
  %.0 = phi i32 [ %0, %15 ], [ 0, %18 ], [ 1, %16 ], [ 1, %16 ], [ 1, %16 ], [ %0, %.thread13 ]
  call void @llvm.lifetime.end.p0(i64 256, ptr nonnull %3) #23
  ret i32 %.0
}